target datalayout = "e-m:e-p270:32:32-p271:32:32-p272:64:64-i64:64-i128:128-f80:128-n8:16:32:64-S128"
target triple = "x86_64-pc-linux-gnu"

@.str = private unnamed_addr constant [10 x i8] c"secp192k1\00", align 1
@.str.1 = private unnamed_addr constant [10 x i8] c"secp192r1\00", align 1
@.str.2 = private unnamed_addr constant [10 x i8] c"secp224k1\00", align 1
@.str.3 = private unnamed_addr constant [10 x i8] c"secp224r1\00", align 1
@.str.4 = private unnamed_addr constant [10 x i8] c"secp256k1\00", align 1
@.str.5 = private unnamed_addr constant [10 x i8] c"secp256r1\00", align 1
@.str.6 = private unnamed_addr constant [10 x i8] c"secp384r1\00", align 1
@.str.7 = private unnamed_addr constant [10 x i8] c"secp521r1\00", align 1
@.str.8 = private unnamed_addr constant [8 x i8] c"bp256r1\00", align 1
@.str.9 = private unnamed_addr constant [8 x i8] c"bp384r1\00", align 1
@.str.10 = private unnamed_addr constant [8 x i8] c"bp512r1\00", align 1
@.str.11 = private unnamed_addr constant [7 x i8] c"x25519\00", align 1
@.str.12 = private unnamed_addr constant [5 x i8] c"x448\00", align 1
@.str.13 = private unnamed_addr constant [10 x i8] c"ffdhe2048\00", align 1
@.str.14 = private unnamed_addr constant [10 x i8] c"ffdhe3072\00", align 1
@.str.15 = private unnamed_addr constant [10 x i8] c"ffdhe4096\00", align 1
@.str.16 = private unnamed_addr constant [10 x i8] c"ffdhe6144\00", align 1
@.str.17 = private unnamed_addr constant [10 x i8] c"ffdhe8192\00", align 1
@.str.18 = private unnamed_addr constant [8 x i8] c"UNKNOWN\00", align 1

; Function Attrs: nounwind uwtable
define hidden ptr @mbedtls_ssl_named_group_to_str(i16 noundef zeroext %0) #0 {
  %2 = alloca ptr, align 8
  %3 = alloca i16, align 2
  store i16 %0, ptr %3, align 2, !tbaa !3
  %4 = load i16, ptr %3, align 2, !tbaa !3
  %5 = zext i16 %4 to i32
  switch i32 %5, label %24 [
    i32 18, label %6
    i32 19, label %7
    i32 20, label %8
    i32 21, label %9
    i32 22, label %10
    i32 23, label %11
    i32 24, label %12
    i32 25, label %13
    i32 26, label %14
    i32 27, label %15
    i32 28, label %16
    i32 29, label %17
    i32 30, label %18
    i32 256, label %19
    i32 257, label %20
    i32 258, label %21
    i32 259, label %22
    i32 260, label %23
  ]

6:                                                ; preds = %1
  store ptr @.str, ptr %2, align 8
  br label %25

7:                                                ; preds = %1
  store ptr @.str.1, ptr %2, align 8
  br label %25

8:                                                ; preds = %1
  store ptr @.str.2, ptr %2, align 8
  br label %25

9:                                                ; preds = %1
  store ptr @.str.3, ptr %2, align 8
  br label %25

10:                                               ; preds = %1
  store ptr @.str.4, ptr %2, align 8
  br label %25

11:                                               ; preds = %1
  store ptr @.str.5, ptr %2, align 8
  br label %25

12:                                               ; preds = %1
  store ptr @.str.6, ptr %2, align 8
  br label %25

13:                                               ; preds = %1
  store ptr @.str.7, ptr %2, align 8
  br label %25

14:                                               ; preds = %1
  store ptr @.str.8, ptr %2, align 8
  br label %25

15:                                               ; preds = %1
  store ptr @.str.9, ptr %2, align 8
  br label %25

16:                                               ; preds = %1
  store ptr @.str.10, ptr %2, align 8
  br label %25

17:                                               ; preds = %1
  store ptr @.str.11, ptr %2, align 8
  br label %25

18:                                               ; preds = %1
  store ptr @.str.12, ptr %2, align 8
  br label %25

19:                                               ; preds = %1
  store ptr @.str.13, ptr %2, align 8
  br label %25

20:                                               ; preds = %1
  store ptr @.str.14, ptr %2, align 8
  br label %25

21:                                               ; preds = %1
  store ptr @.str.15, ptr %2, align 8
  br label %25

22:                                               ; preds = %1
  store ptr @.str.16, ptr %2, align 8
  br label %25

23:                                               ; preds = %1
  store ptr @.str.17, ptr %2, align 8
  br label %25

24:                                               ; preds = %1
  store ptr @.str.18, ptr %2, align 8
  br label %25

25:                                               ; preds = %24, %23, %22, %21, %20, %19, %18, %17, %16, %15, %14, %13, %12, %11, %10, %9, %8, %7, %6
  %26 = load ptr, ptr %2, align 8
  ret ptr %26
}