; Function Attrs: mustprogress nofree norecurse nosync nounwind willreturn memory(none) uwtable
define hidden noundef nonnull ptr @mbedtls_ssl_named_group_to_str(i16 noundef zeroext %0) local_unnamed_addr #0 {
  switch i16 %0, label %19 [
    i16 18, label %20
    i16 19, label %2
    i16 20, label %3
    i16 21, label %4
    i16 22, label %5
    i16 23, label %6
    i16 24, label %7
    i16 25, label %8
    i16 26, label %9
    i16 27, label %10
    i16 28, label %11
    i16 29, label %12
    i16 30, label %13
    i16 256, label %14
    i16 257, label %15
    i16 258, label %16
    i16 259, label %17
    i16 260, label %18
  ]

2:                                                ; preds = %1
  br label %20

3:                                                ; preds = %1
  br label %20

4:                                                ; preds = %1
  br label %20

5:                                                ; preds = %1
  br label %20

6:                                                ; preds = %1
  br label %20

7:                                                ; preds = %1
  br label %20

8:                                                ; preds = %1
  br label %20

9:                                                ; preds = %1
  br label %20

10:                                               ; preds = %1
  br label %20

11:                                               ; preds = %1
  br label %20

12:                                               ; preds = %1
  br label %20

13:                                               ; preds = %1
  br label %20

14:                                               ; preds = %1
  br label %20

15:                                               ; preds = %1
  br label %20

16:                                               ; preds = %1
  br label %20

17:                                               ; preds = %1
  br label %20

18:                                               ; preds = %1
  br label %20

19:                                               ; preds = %1
  br label %20

20:                                               ; preds = %1, %19, %18, %17, %16, %15, %14, %13, %12, %11, %10, %9, %8, %7, %6, %5, %4, %3, %2
  %.0 = phi ptr [ @.str.18, %19 ], [ @.str.17, %18 ], [ @.str.16, %17 ], [ @.str.15, %16 ], [ @.str.14, %15 ], [ @.str.13, %14 ], [ @.str.12, %13 ], [ @.str.11, %12 ], [ @.str.10, %11 ], [ @.str.9, %10 ], [ @.str.8, %9 ], [ @.str.7, %8 ], [ @.str.6, %7 ], [ @.str.5, %6 ], [ @.str.4, %5 ], [ @.str.3, %4 ], [ @.str.2, %3 ], [ @.str.1, %2 ], [ @.str, %1 ]
  ret ptr %.0
}